#include <math.h>
#include <stdio.h>
#include <stdlib.h>
#include <string.h>

void main()
{
int an=0,bn=0,j,i,t=0;
char a[50],b[50];
scanf("%s%s",a,b);
an=strlen(a);
bn=strlen(b);
for(i=0;i<bn;i++)
{
	if(b[i]==a[0])
	{
	for(j=i;j<(i+an);j++)
		if(b[j]!=a[j-i])break;
	    else if (j==i+an-1)
		{printf("%d",i);t=1;}
	 
	}
	if(t==1)break;
}


}